target datalayout = "e-m:e-p270:32:32-p271:32:32-p272:64:64-i64:64-i128:128-f80:128-n8:16:32:64-S128"
target triple = "x86_64-pc-linux-gnu"

@TMPI_COMM_WORLD = external global ptr, align 8
@_ZL14tmpi_finalized = internal global i32 0, align 4

; Function Attrs: mustprogress nounwind uwtable
define noundef i32 @_Z16tMPI_InitializedPi(ptr noundef %0) #6 {
  %2 = alloca ptr, align 8
  store ptr %0, ptr %2, align 8, !tbaa !51
  %3 = load ptr, ptr @TMPI_COMM_WORLD, align 8, !tbaa !3
  %4 = icmp ne ptr %3, null
  br i1 %4, label %5, label %9

5:                                                ; preds = %1
  %6 = load i32, ptr @_ZL14tmpi_finalized, align 4, !tbaa !30
  %7 = icmp ne i32 %6, 0
  %8 = xor i1 %7, true
  br label %9

9:                                                ; preds = %5, %1
  %10 = phi i1 [ false, %1 ], [ %8, %5 ]
  %11 = zext i1 %10 to i32
  %12 = load ptr, ptr %2, align 8, !tbaa !51
  store i32 %11, ptr %12, align 4, !tbaa !30
  ret i32 0
}