; Function Attrs: mustprogress nofree norecurse nosync nounwind willreturn memory(read, argmem: write, inaccessiblemem: none) uwtable
define noundef i32 @_Z16tMPI_InitializedPi(ptr noundef writeonly captures(none) initializes((0, 4)) %0) local_unnamed_addr #6 {
  %2 = load ptr, ptr @TMPI_COMM_WORLD, align 8, !tbaa !3
  %3 = icmp ne ptr %2, null
  %.b = load i1, ptr @_ZL14tmpi_finalized, align 4
  %4 = xor i1 %.b, true
  %5 = select i1 %3, i1 %4, i1 false
  %6 = zext i1 %5 to i32
  store i32 %6, ptr %0, align 4, !tbaa !46
  ret i32 0
}